(lp0
(lp1
S'bikesT0to1'
p2
aS'0.0842105'
p3
aS'0.302'
p4
aa(lp5
S'bikesT0to2'
p6
aS'0.342541'
p7
aS'0.464'
p8
aa(lp9
S'bikesT0to3'
p10
aS'0.224324'
p11
aS'0.536'
p12
aa(lp13
S'wallT0to1'
p14
aS'0.00541126'
p15
aS'0.048'
p16
aa(lp17
S'wallT0to2'
p18
aS'0.0984849'
p19
aS'0.428'
p20
aa(lp21
S'wallT0to3'
p22
aS'0.107143'
p23
aS'0.56'
p24
aa(lp25
S'leuvenT0to1'
p26
aS'0.00757576'
p27
aS'0.242'
p28
aa(lp29
S'leuvenT0to2'
p30
aS'0.139323'
p31
aS'0.39'
p32
aa(lp33
S'leuvenT0to3'
p34
aS'0.177083'
p35
aS'0.514'
p36
aa(lp37
S'grafT0to1'
p38
aS'0.00332779'
p39
aS'0.476'
p40
aa(lp41
S'grafT0to2'
p42
aS'0.155556'
p43
aS'0.654'
p44
aa(lp45
S'grafT0to3'
p46
aS'0.172222'
p47
aS'0.692'
p48
aa.